; ModuleID = 'source-C-CXX/61/194.c'
source_filename = "source-C-CXX/61/194.c"
target datalayout = "e-m:e-p270:32:32-p271:32:32-p272:64:64-i64:64-f80:128-n8:16:32:64-S128"
target triple = "x86_64-pc-linux-gnu"

; Function Attrs: nounwind sspstrong uwtable
define dso_local i32 @main() local_unnamed_addr #0 {
  %1 = alloca [200 x i8], align 16
  %2 = alloca [200 x i8], align 16
  %3 = getelementptr inbounds [200 x i8], [200 x i8]* %1, i64 0, i64 0
  call void @llvm.lifetime.start.p0i8(i64 200, i8* nonnull %3) #5
  %4 = call i32 (i8*, ...) bitcast (i32 (...)* @gets to i32 (i8*, ...)*)(i8* nonnull %3) #5
  %5 = call i64 @strlen(i8* noundef nonnull %3) #6
  %6 = trunc i64 %5 to i32
  %7 = getelementptr inbounds [200 x i8], [200 x i8]* %2, i64 0, i64 0
  call void @llvm.lifetime.start.p0i8(i64 200, i8* nonnull %7) #5
  %8 = icmp sgt i32 %6, 0
  br i1 %8, label %13, label %46

9:                                                ; preds = %33
  %10 = icmp sgt i32 %34, 0
  br i1 %10, label %11, label %46

11:                                               ; preds = %9
  %12 = zext i32 %34 to i64
  br label %38

13:                                               ; preds = %0, %33
  %14 = phi i32 [ %36, %33 ], [ 0, %0 ]
  %15 = phi i32 [ %34, %33 ], [ 0, %0 ]
  %16 = sext i32 %14 to i64
  %17 = getelementptr inbounds [200 x i8], [200 x i8]* %1, i64 0, i64 %16
  %18 = load i8, i8* %17, align 1, !tbaa !5
  %19 = icmp eq i8 %18, 32
  br i1 %19, label %33, label %20

20:                                               ; preds = %13
  %21 = add nsw i32 %14, 1
  %22 = sext i32 %21 to i64
  %23 = getelementptr inbounds [200 x i8], [200 x i8]* %1, i64 0, i64 %22
  %24 = load i8, i8* %23, align 1, !tbaa !5
  %25 = icmp eq i8 %24, 32
  %26 = sext i32 %15 to i64
  %27 = getelementptr inbounds [200 x i8], [200 x i8]* %2, i64 0, i64 %26
  store i8 %18, i8* %27, align 1, !tbaa !5
  %28 = add nsw i32 %15, 1
  br i1 %25, label %29, label %33

29:                                               ; preds = %20
  %30 = sext i32 %28 to i64
  %31 = getelementptr inbounds [200 x i8], [200 x i8]* %2, i64 0, i64 %30
  store i8 32, i8* %31, align 1, !tbaa !5
  %32 = add nsw i32 %15, 2
  br label %33

33:                                               ; preds = %20, %13, %29
  %34 = phi i32 [ %32, %29 ], [ %15, %13 ], [ %28, %20 ]
  %35 = phi i32 [ %21, %29 ], [ %14, %13 ], [ %14, %20 ]
  %36 = add nsw i32 %35, 1
  %37 = icmp slt i32 %36, %6
  br i1 %37, label %13, label %9, !llvm.loop !8

38:                                               ; preds = %11, %38
  %39 = phi i64 [ 0, %11 ], [ %44, %38 ]
  %40 = getelementptr inbounds [200 x i8], [200 x i8]* %2, i64 0, i64 %39
  %41 = load i8, i8* %40, align 1, !tbaa !5
  %42 = sext i8 %41 to i32
  %43 = call i32 @putchar(i32 %42)
  %44 = add nuw nsw i64 %39, 1
  %45 = icmp eq i64 %44, %12
  br i1 %45, label %46, label %38, !llvm.loop !10

46:                                               ; preds = %38, %0, %9
  call void @llvm.lifetime.end.p0i8(i64 200, i8* nonnull %7) #5
  call void @llvm.lifetime.end.p0i8(i64 200, i8* nonnull %3) #5
  ret i32 0
}

; Function Attrs: argmemonly mustprogress nofree nosync nounwind willreturn
declare void @llvm.lifetime.start.p0i8(i64 immarg, i8* nocapture) #1

declare i32 @gets(...) local_unnamed_addr #2

; Function Attrs: argmemonly mustprogress nofree nounwind readonly willreturn
declare i64 @strlen(i8* nocapture) local_unnamed_addr #3

; Function Attrs: argmemonly mustprogress nofree nosync nounwind willreturn
declare void @llvm.lifetime.end.p0i8(i64 immarg, i8* nocapture) #1

; Function Attrs: nofree nounwind
declare noundef i32 @putchar(i32 noundef) local_unnamed_addr #4


!llvm.module.flags = !{!0, !1, !2, !3}
!llvm.ident = !{!4}

!0 = !{i32 1, !"wchar_size", i32 4}
!1 = !{i32 7, !"PIC Level", i32 2}
!2 = !{i32 7, !"PIE Level", i32 2}
!3 = !{i32 7, !"uwtable", i32 1}
!4 = !{!"clang version 13.0.0"}
!5 = !{!6, !6, i64 0}
!6 = !{!"omnipotent char", !7, i64 0}
!7 = !{!"Simple C/C++ TBAA"}
!8 = distinct !{!8, !9}
!9 = !{!"llvm.loop.mustprogress"}
!10 = distinct !{!10, !9}
